; Function Attrs: nounwind uwtable
define void @applyGateSubDiagonalOp(ptr noundef readonly byval(%struct.Qureg) align 8 captures(none) %0, ptr noundef %1, i32 noundef %2, ptr noundef readonly byval(%struct.SubDiagonalOp) align 8 captures(none) %3) local_unnamed_addr #0 {
  tail call void @validateSubDiagOpTargets(ptr noundef nonnull byval(%struct.Qureg) align 8 %0, ptr noundef %1, i32 noundef %2, ptr noundef nonnull byval(%struct.SubDiagonalOp) align 8 %3, ptr noundef nonnull @__func__.applyGateSubDiagonalOp) #17
  tail call void @statevec_applySubDiagonalOp(ptr noundef nonnull byval(%struct.Qureg) align 8 %0, ptr noundef %1, ptr noundef nonnull byval(%struct.SubDiagonalOp) align 8 %3, i32 noundef 0) #17
  %5 = load i32, ptr %0, align 8, !tbaa !12
  %.not = icmp eq i32 %5, 0
  br i1 %.not, label %10, label %6

6:                                                ; preds = %4
  %7 = getelementptr inbounds nuw i8, ptr %0, i64 4
  %8 = load i32, ptr %7, align 4, !tbaa !17
  tail call void @shiftIndices(ptr noundef %1, i32 noundef %2, i32 noundef %8) #17
  tail call void @statevec_applySubDiagonalOp(ptr noundef nonnull byval(%struct.Qureg) align 8 %0, ptr noundef %1, ptr noundef nonnull byval(%struct.SubDiagonalOp) align 8 %3, i32 noundef 1) #17
  %9 = sub nsw i32 0, %8
  tail call void @shiftIndices(ptr noundef %1, i32 noundef %2, i32 noundef %9) #17
  br label %10

10:                                               ; preds = %6, %4
  tail call void (ptr, ptr, ...) @qasm_recordComment(ptr noundef nonnull byval(%struct.Qureg) align 8 %0, ptr noundef nonnull @.str.31) #17
  ret void
}